Certificate:
    Data:
        Version: 3 (0x2)
        Serial Number: 1 (0x1)
    Signature Algorithm: sha256WithRSAEncryption
        Issuer: UID=67b8c15ac033e162117e16cce69cf83127e17d4392dc96a5b2b71e5964568779/emailAddress=67b8c15ac033e162117e16cce69cf83127e17d4392dc96a5b2b71e5964568779@example.com, CN=CA
        Validity
            Not Before: Nov 13 21:44:02 2022 GMT
            Not After : Jan 12 21:44:02 2023 GMT
        Subject: CN=Client Cert/emailAddress=67b8c15ac033e162117e16cce69cf83127e17d4392dc96a5b2b71e5964568779@example.com/UID=67b8c15ac033e162117e16cce69cf83127e17d4392dc96a5b2b71e5964568779
        Subject Public Key Info:
            Public Key Algorithm: rsaEncryption
                RSA Public-Key: (2048 bit)
                Modulus:
                    00:de:4e:f4:3b:c0:66:21:39:c3:af:55:23:07:52:
                    c1:31:3a:50:bf:20:79:d6:9e:a8:9b:a2:02:0d:1a:
                    5c:a6:2d:36:14:63:c7:6a:51:34:5a:10:36:db:7f:
                    88:2a:22:86:be:31:f4:79:eb:62:f9:9e:02:cc:17:
                    f8:c2:74:aa:49:46:ef:d1:38:53:d7:54:af:01:1a:
                    07:eb:b1:e9:fb:60:c8:50:1d:71:4b:6f:3d:6d:df:
                    6e:61:90:97:df:a8:6a:06:95:ef:09:82:55:f4:1a:
                    14:ff:2d:a5:86:b6:19:cc:15:e9:73:12:a5:7f:c1:
                    61:c2:26:95:88:30:b3:f3:67:c1:ba:5f:ce:51:b3:
                    7e:1a:f9:6f:bc:a4:4e:6d:66:9c:9e:eb:ee:7e:10:
                    35:99:76:7d:a7:fa:f7:aa:18:0b:77:12:7e:b0:52:
                    d2:3e:29:64:e3:6d:55:cf:1d:f5:ab:b8:a3:56:d3:
                    18:53:c9:de:70:13:13:f1:cb:1a:70:14:f9:3b:f2:
                    6b:ad:85:f7:fd:e0:ec:b4:36:d5:b3:94:90:81:2c:
                    c1:42:ef:d8:3b:21:74:56:03:52:c8:e8:cd:28:86:
                    d4:97:97:44:c9:61:89:2a:3c:c8:dd:e6:51:2e:71:
                    03:9f:4e:b6:d9:1c:4d:5b:05:6b:26:5f:66:f3:2e:
                    53:6d
                Exponent: 65537 (0x10001)
        X509v3 extensions:
            X509v3 Extended Key Usage: 
                TLS Web Client Authentication
            X509v3 CRL Distribution Points: 

                Full Name:
                  URI:http://www.example.com/example_ca.crl

    Signature Algorithm: sha256WithRSAEncryption
         37:14:5d:fd:a7:c0:8a:0e:cd:af:d3:81:ac:93:39:15:82:85:
         38:12:16:14:6e:3b:74:25:3a:7f:8a:e9:2b:41:92:57:b0:ee:
         8e:6f:07:4d:df:68:6f:9c:ad:56:e9:80:bb:a4:0b:d8:f2:16:
         3c:e7:a2:18:53:60:ca:f4:f5:1a:24:af:58:38:27:b7:ad:32:
         5f:2c:26:8c:fa:89:f8:b0:a1:d5:b3:6b:ea:47:96:81:29:3f:
         aa:21:47:e4:fd:59:b0:05:14:0f:08:e6:cd:5d:d8:bf:44:19:
         1b:78:43:33:22:c7:cd:dd:62:8e:70:c1:00:1e:87:12:db:92:
         32:2d:3a:13:2f:b2:4f:6b:c3:3a:fd:ab:2f:5a:b8:36:e2:c2:
         47:80:f2:92:02:02:f4:b5:79:99:b6:76:33:bf:eb:6f:36:69:
         30:34:34:c5:2c:cc:e2:65:b6:1d:e9:44:83:be:fc:16:e4:e7:
         4d:e9:e6:63:88:57:ec:8c:e5:e0:2f:1b:c2:7c:95:1a:15:ad:
         90:91:8e:7b:dc:20:55:67:b9:71:95:f1:c3:ff:85:05:fa:60:
         76:16:2d:c6:32:64:37:36:b0:4a:99:ac:65:d8:d1:1d:88:14:
         8f:2c:b5:d0:fa:d6:5b:e5:d5:ca:1c:b1:1f:f7:d8:e2:a7:1c:
         5e:79:48:05
-----BEGIN CERTIFICATE-----
MIIETTCCAzWgAwIBAgIBATANBgkqhkiG9w0BAQsFADCBvDFQME4GCgmSJomT8ixk
AQEMQDY3YjhjMTVhYzAzM2UxNjIxMTdlMTZjY2U2OWNmODMxMjdlMTdkNDM5MmRj
OTZhNWIyYjcxZTU5NjQ1Njg3NzkxWzBZBgkqhkiG9w0BCQEWTDY3YjhjMTVhYzAz
M2UxNjIxMTdlMTZjY2U2OWNmODMxMjdlMTdkNDM5MmRjOTZhNWIyYjcxZTU5NjQ1
Njg3NzlAZXhhbXBsZS5jb20xCzAJBgNVBAMMAkNBMB4XDTIyMTExMzIxNDQwMloX
DTIzMDExMjIxNDQwMlowgcUxFDASBgNVBAMMC0NsaWVudCBDZXJ0MVswWQYJKoZI
hvcNAQkBFkw2N2I4YzE1YWMwMzNlMTYyMTE3ZTE2Y2NlNjljZjgzMTI3ZTE3ZDQz
OTJkYzk2YTViMmI3MWU1OTY0NTY4Nzc5QGV4YW1wbGUuY29tMVAwTgYKCZImiZPy
LGQBAQxANjdiOGMxNWFjMDMzZTE2MjExN2UxNmNjZTY5Y2Y4MzEyN2UxN2Q0Mzky
ZGM5NmE1YjJiNzFlNTk2NDU2ODc3OTCCASIwDQYJKoZIhvcNAQEBBQADggEPADCC
AQoCggEBAN5O9DvAZiE5w69VIwdSwTE6UL8gedaeqJuiAg0aXKYtNhRjx2pRNFoQ
Ntt/iCoihr4x9HnrYvmeAswX+MJ0qklG79E4U9dUrwEaB+ux6ftgyFAdcUtvPW3f
bmGQl9+oagaV7wmCVfQaFP8tpYa2GcwV6XMSpX/BYcImlYgws/NnwbpfzlGzfhr5
b7ykTm1mnJ7r7n4QNZl2faf696oYC3cSfrBS0j4pZONtVc8d9au4o1bTGFPJ3nAT
E/HLGnAU+Tvya62F9/3g7LQ21bOUkIEswULv2DshdFYDUsjozSiG1JeXRMlhiSo8
yN3mUS5xA59OttkcTVsFayZfZvMuU20CAwEAAaNPME0wEwYDVR0lBAwwCgYIKwYB
BQUHAwIwNgYDVR0fBC8wLTAroCmgJ4YlaHR0cDovL3d3dy5leGFtcGxlLmNvbS9l
eGFtcGxlX2NhLmNybDANBgkqhkiG9w0BAQsFAAOCAQEANxRd/afAig7Nr9OBrJM5
FYKFOBIWFG47dCU6f4rpK0GSV7Dujm8HTd9ob5ytVumAu6QL2PIWPOeiGFNgyvT1
GiSvWDgnt60yXywmjPqJ+LCh1bNr6keWgSk/qiFH5P1ZsAUUDwjmzV3Yv0QZG3hD
MyLHzd1ijnDBAB6HEtuSMi06Ey+yT2vDOv2rL1q4NuLCR4DykgIC9LV5mbZ2M7/r
bzZpMDQ0xSzM4mW2HelEg778FuTnTenmY4hX7Izl4C8bwnyVGhWtkJGOe9wgVWe5
cZXxw/+FBfpgdhYtxjJkNzawSpmsZdjRHYgUjyy10PrWW+XVyhyxH/fY4qccXnlI
BQ==
-----END CERTIFICATE-----
